target datalayout = "e-m:e-p270:32:32-p271:32:32-p272:64:64-i64:64-i128:128-f80:128-n8:16:32:64-S128"
target triple = "x86_64-pc-linux-gnu"

%struct.vconfig_s = type { i32, i32, ptr, ptr, ptr, ptr, ptr }

; Function Attrs: nounwind uwtable
define void @Pobsclose(ptr noundef %0) #0 {
  %2 = alloca ptr, align 8
  store ptr %0, ptr %2, align 8, !tbaa !10
  %3 = load ptr, ptr %2, align 8, !tbaa !10
  %4 = getelementptr inbounds nuw %struct.vconfig_s, ptr %3, i32 0, i32 2
  %5 = load ptr, ptr %4, align 8, !tbaa !21
  call void @free(ptr noundef %5) #10
  %6 = load ptr, ptr %2, align 8, !tbaa !10
  %7 = getelementptr inbounds nuw %struct.vconfig_s, ptr %6, i32 0, i32 3
  %8 = load ptr, ptr %7, align 8, !tbaa !25
  call void @free(ptr noundef %8) #10
  %9 = load ptr, ptr %2, align 8, !tbaa !10
  %10 = getelementptr inbounds nuw %struct.vconfig_s, ptr %9, i32 0, i32 4
  %11 = load ptr, ptr %10, align 8, !tbaa !26
  call void @free(ptr noundef %11) #10
  %12 = load ptr, ptr %2, align 8, !tbaa !10
  %13 = getelementptr inbounds nuw %struct.vconfig_s, ptr %12, i32 0, i32 5
  %14 = load ptr, ptr %13, align 8, !tbaa !27
  call void @free(ptr noundef %14) #10
  %15 = load ptr, ptr %2, align 8, !tbaa !10
  %16 = getelementptr inbounds nuw %struct.vconfig_s, ptr %15, i32 0, i32 6
  %17 = load ptr, ptr %16, align 8, !tbaa !36
  %18 = icmp ne ptr %17, null
  br i1 %18, label %19, label %28

19:                                               ; preds = %1
  %20 = load ptr, ptr %2, align 8, !tbaa !10
  %21 = getelementptr inbounds nuw %struct.vconfig_s, ptr %20, i32 0, i32 6
  %22 = load ptr, ptr %21, align 8, !tbaa !36
  %23 = getelementptr inbounds ptr, ptr %22, i64 0
  %24 = load ptr, ptr %23, align 8, !tbaa !37
  call void @free(ptr noundef %24) #10
  %25 = load ptr, ptr %2, align 8, !tbaa !10
  %26 = getelementptr inbounds nuw %struct.vconfig_s, ptr %25, i32 0, i32 6
  %27 = load ptr, ptr %26, align 8, !tbaa !36
  call void @free(ptr noundef %27) #10
  br label %28

28:                                               ; preds = %19, %1
  %29 = load ptr, ptr %2, align 8, !tbaa !10
  call void @free(ptr noundef %29) #10
  ret void
}