; Function Attrs: mustprogress nounwind willreturn uwtable
define void @Pobsclose(ptr noundef captures(none) %0) local_unnamed_addr #6 {
  %2 = getelementptr inbounds nuw i8, ptr %0, i64 8
  %3 = load ptr, ptr %2, align 8, !tbaa !14
  tail call void @free(ptr noundef %3) #11
  %4 = getelementptr inbounds nuw i8, ptr %0, i64 16
  %5 = load ptr, ptr %4, align 8, !tbaa !19
  tail call void @free(ptr noundef %5) #11
  %6 = getelementptr inbounds nuw i8, ptr %0, i64 24
  %7 = load ptr, ptr %6, align 8, !tbaa !20
  tail call void @free(ptr noundef %7) #11
  %8 = getelementptr inbounds nuw i8, ptr %0, i64 32
  %9 = load ptr, ptr %8, align 8, !tbaa !21
  tail call void @free(ptr noundef %9) #11
  %10 = getelementptr inbounds nuw i8, ptr %0, i64 40
  %11 = load ptr, ptr %10, align 8, !tbaa !31
  %.not = icmp eq ptr %11, null
  br i1 %.not, label %15, label %12

12:                                               ; preds = %1
  %13 = load ptr, ptr %11, align 8, !tbaa !32
  tail call void @free(ptr noundef %13) #11
  %14 = load ptr, ptr %10, align 8, !tbaa !31
  tail call void @free(ptr noundef %14) #11
  br label %15

15:                                               ; preds = %12, %1
  tail call void @free(ptr noundef nonnull %0) #11
  ret void
}